; Function Attrs: nounwind uwtable
define noalias nonnull ptr @l_Lean_IR_ExplicitBoxing_getEnv(ptr noundef readonly captures(none) %0, ptr noundef %1) local_unnamed_addr #0 {
  %3 = getelementptr inbounds nuw i8, ptr %0, i64 40
  %4 = load ptr, ptr %3, align 8, !tbaa !4
  %5 = ptrtoint ptr %4 to i64
  %6 = and i64 %5, 1
  %.not = icmp eq i64 %6, 0
  br i1 %.not, label %7, label %lean_inc.exit

7:                                                ; preds = %2
  %.val.i = load i32, ptr %4, align 4, !tbaa !10
  %8 = icmp sgt i32 %.val.i, 0
  br i1 %8, label %9, label %11, !prof !13

9:                                                ; preds = %7
  %10 = add nuw i32 %.val.i, 1
  store i32 %10, ptr %4, align 4, !tbaa !10
  br label %lean_inc.exit

11:                                               ; preds = %7
  %.not.i = icmp eq i32 %.val.i, 0
  br i1 %.not.i, label %lean_inc.exit, label %12

12:                                               ; preds = %11
  tail call void @lean_inc_ref_cold(ptr noundef nonnull %4) #6
  br label %lean_inc.exit

lean_inc.exit:                                    ; preds = %12, %11, %9, %2
  tail call void @lean_inc_heartbeat() #6
  %13 = tail call noalias ptr @mi_malloc_small(i64 noundef 24) #6
  %14 = icmp eq ptr %13, null
  br i1 %14, label %15, label %lean_alloc_ctor.exit

15:                                               ; preds = %lean_inc.exit
  tail call void @lean_internal_panic_out_of_memory() #7
  unreachable

lean_alloc_ctor.exit:                             ; preds = %lean_inc.exit
  %16 = getelementptr inbounds nuw i8, ptr %13, i64 4
  store i32 1, ptr %13, align 4, !tbaa !10
  store i32 131096, ptr %16, align 4
  %17 = getelementptr inbounds nuw i8, ptr %13, i64 8
  store ptr %4, ptr %17, align 8, !tbaa !4
  %18 = getelementptr inbounds nuw i8, ptr %13, i64 16
  store ptr %1, ptr %18, align 8, !tbaa !4
  ret ptr %13
}